; ModuleID = '44/1383.c'
source_filename = "44/1383.c"
target datalayout = "e-m:e-p270:32:32-p271:32:32-p272:64:64-i64:64-f80:128-n8:16:32:64-S128"
target triple = "x86_64-pc-linux-gnu"

@.str = private unnamed_addr constant [18 x i8] c"%d %d %d %d %d %d\00", align 1
@.str.1 = private unnamed_addr constant [19 x i8] c"%d\0A%d\0A%d\0A%d\0A%d\0A%d\0A\00", align 1

; Function Attrs: noinline nounwind uwtable
define dso_local i32 @reverse(i32 %0) #0 {
  %2 = alloca i32, align 4
  %3 = alloca [20 x i32], align 16
  %4 = alloca i32, align 4
  %5 = alloca i32, align 4
  %6 = alloca i32, align 4
  store i32 %0, i32* %2, align 4
  store i32 0, i32* %5, align 4
  store i32 0, i32* %6, align 4
  store i32 0, i32* %4, align 4
  br label %7

7:                                                ; preds = %44, %1
  %8 = load i32, i32* %2, align 4
  %9 = load i32, i32* %4, align 4
  %10 = add nsw i32 %9, 1
  %11 = sitofp i32 %10 to double
  %12 = call double @pow(double 1.000000e+01, double %11) #3
  %13 = fptosi double %12 to i32
  %14 = srem i32 %8, %13
  %15 = load i32, i32* %4, align 4
  %16 = sext i32 %15 to i64
  %17 = getelementptr inbounds [20 x i32], [20 x i32]* %3, i64 0, i64 %16
  store i32 %14, i32* %17, align 4
  %18 = load i32, i32* %2, align 4
  %19 = load i32, i32* %4, align 4
  %20 = add nsw i32 %19, 1
  %21 = sitofp i32 %20 to double
  %22 = call double @pow(double 1.000000e+01, double %21) #3
  %23 = fptosi double %22 to i32
  %24 = srem i32 %18, %23
  %25 = icmp eq i32 %24, 0
  br i1 %25, label %26, label %37

26:                                               ; preds = %7
  %27 = load i32, i32* %2, align 4
  %28 = load i32, i32* %4, align 4
  %29 = add nsw i32 %28, 1
  %30 = sitofp i32 %29 to double
  %31 = call double @pow(double 1.000000e+01, double %30) #3
  %32 = fptosi double %31 to i32
  %33 = sdiv i32 %27, %32
  %34 = icmp eq i32 %33, 0
  br i1 %34, label %35, label %37

35:                                               ; preds = %26
  %36 = load i32, i32* %4, align 4
  store i32 %36, i32* %6, align 4
  br label %47

37:                                               ; preds = %26, %7
  %38 = load i32, i32* %2, align 4
  %39 = load i32, i32* %4, align 4
  %40 = sext i32 %39 to i64
  %41 = getelementptr inbounds [20 x i32], [20 x i32]* %3, i64 0, i64 %40
  %42 = load i32, i32* %41, align 4
  %43 = sub nsw i32 %38, %42
  store i32 %43, i32* %2, align 4
  br label %44

44:                                               ; preds = %37
  %45 = load i32, i32* %4, align 4
  %46 = add nsw i32 %45, 1
  store i32 %46, i32* %4, align 4
  br label %7

47:                                               ; preds = %35
  %48 = load i32, i32* %4, align 4
  br label %49

49:                                               ; preds = %72, %47
  %50 = load i32, i32* %4, align 4
  %51 = icmp sge i32 %50, 0
  br i1 %51, label %52, label %75

52:                                               ; preds = %49
  %53 = load i32, i32* %5, align 4
  %54 = load i32, i32* %4, align 4
  %55 = sext i32 %54 to i64
  %56 = getelementptr inbounds [20 x i32], [20 x i32]* %3, i64 0, i64 %55
  %57 = load i32, i32* %56, align 4
  %58 = load i32, i32* %6, align 4
  %59 = load i32, i32* %4, align 4
  %60 = sub nsw i32 %58, %59
  %61 = sub nsw i32 %60, 1
  %62 = sitofp i32 %61 to double
  %63 = call double @pow(double 1.000000e+01, double %62) #3
  %64 = fptosi double %63 to i32
  %65 = mul nsw i32 %57, %64
  %66 = load i32, i32* %4, align 4
  %67 = sitofp i32 %66 to double
  %68 = call double @pow(double 1.000000e+01, double %67) #3
  %69 = fptosi double %68 to i32
  %70 = sdiv i32 %65, %69
  %71 = add nsw i32 %53, %70
  store i32 %71, i32* %5, align 4
  br label %72

72:                                               ; preds = %52
  %73 = load i32, i32* %4, align 4
  %74 = add nsw i32 %73, -1
  store i32 %74, i32* %4, align 4
  br label %49

75:                                               ; preds = %49
  %76 = load i32, i32* %5, align 4
  ret i32 %76
}

; Function Attrs: nounwind
declare dso_local double @pow(double, double) #1

; Function Attrs: noinline nounwind uwtable
define dso_local i32 @main(i32 %0, i8** %1) #0 {
  %3 = alloca i32, align 4
  %4 = alloca i32, align 4
  %5 = alloca i8**, align 8
  %6 = alloca i32, align 4
  %7 = alloca i32, align 4
  %8 = alloca i32, align 4
  %9 = alloca i32, align 4
  %10 = alloca i32, align 4
  %11 = alloca i32, align 4
  store i32 0, i32* %3, align 4
  store i32 %0, i32* %4, align 4
  store i8** %1, i8*** %5, align 8
  %12 = call i32 (i8*, ...) @__isoc99_scanf(i8* getelementptr inbounds ([18 x i8], [18 x i8]* @.str, i64 0, i64 0), i32* %6, i32* %7, i32* %8, i32* %9, i32* %10, i32* %11)
  %13 = load i32, i32* %6, align 4
  %14 = call i32 @reverse(i32 %13)
  %15 = load i32, i32* %7, align 4
  %16 = call i32 @reverse(i32 %15)
  %17 = load i32, i32* %8, align 4
  %18 = call i32 @reverse(i32 %17)
  %19 = load i32, i32* %9, align 4
  %20 = call i32 @reverse(i32 %19)
  %21 = load i32, i32* %10, align 4
  %22 = call i32 @reverse(i32 %21)
  %23 = load i32, i32* %11, align 4
  %24 = call i32 @reverse(i32 %23)
  %25 = call i32 (i8*, ...) @printf(i8* getelementptr inbounds ([19 x i8], [19 x i8]* @.str.1, i64 0, i64 0), i32 %14, i32 %16, i32 %18, i32 %20, i32 %22, i32 %24)
  ret i32 0
}

declare dso_local i32 @__isoc99_scanf(i8*, ...) #2

declare dso_local i32 @printf(i8*, ...) #2


!llvm.module.flags = !{!0}
!llvm.ident = !{!1}

!0 = !{i32 1, !"wchar_size", i32 4}
!1 = !{!"clang version 10.0.0-4ubuntu1 "}
